target datalayout = "e-m:e-p270:32:32-p271:32:32-p272:64:64-i64:64-i128:128-f80:128-n8:16:32:64-S128"
target triple = "x86_64-pc-linux-gnu"

%struct.opj_codec_private = type { %union.anon, ptr, %struct.opj_event_mgr, i32, ptr, ptr, ptr, ptr }
%union.anon = type { %struct.opj_decompression }
%struct.opj_decompression = type { ptr, ptr, ptr, ptr, ptr, ptr, ptr, ptr, ptr, ptr, ptr, ptr }
%struct.opj_event_mgr = type { ptr, ptr, ptr, ptr, ptr, ptr }
%struct.opj_compression = type { ptr, ptr, ptr, ptr, ptr, ptr, ptr }

; Function Attrs: nounwind uwtable
define hidden ptr @opj_create_compress(i32 noundef %0) #0 {
  %2 = alloca ptr, align 8
  %3 = alloca i32, align 4
  %4 = alloca ptr, align 8
  %5 = alloca i32, align 4
  store i32 %0, ptr %3, align 4, !tbaa !20
  call void @llvm.lifetime.start.p0(i64 8, ptr %4) #5
  store ptr null, ptr %4, align 8, !tbaa !9
  %6 = call ptr @opj_calloc(i64 noundef 1, i64 noundef 192)
  store ptr %6, ptr %4, align 8, !tbaa !9
  %7 = load ptr, ptr %4, align 8, !tbaa !9
  %8 = icmp ne ptr %7, null
  br i1 %8, label %10, label %9

9:                                                ; preds = %1
  store ptr null, ptr %2, align 8
  store i32 1, ptr %5, align 4
  br label %89

10:                                               ; preds = %1
  %11 = load ptr, ptr %4, align 8, !tbaa !9
  %12 = getelementptr inbounds nuw %struct.opj_codec_private, ptr %11, i32 0, i32 3
  store i32 0, ptr %12, align 8, !tbaa !21
  %13 = load i32, ptr %3, align 4, !tbaa !20
  switch i32 %13, label %83 [
    i32 0, label %14
    i32 2, label %48
    i32 -1, label %82
    i32 1, label %82
  ]

14:                                               ; preds = %10
  %15 = load ptr, ptr %4, align 8, !tbaa !9
  %16 = getelementptr inbounds nuw %struct.opj_codec_private, ptr %15, i32 0, i32 0
  %17 = getelementptr inbounds nuw %struct.opj_compression, ptr %16, i32 0, i32 1
  store ptr @opj_j2k_encode, ptr %17, align 8, !tbaa !25
  %18 = load ptr, ptr %4, align 8, !tbaa !9
  %19 = getelementptr inbounds nuw %struct.opj_codec_private, ptr %18, i32 0, i32 0
  %20 = getelementptr inbounds nuw %struct.opj_compression, ptr %19, i32 0, i32 3
  store ptr @opj_j2k_end_compress, ptr %20, align 8, !tbaa !25
  %21 = load ptr, ptr %4, align 8, !tbaa !9
  %22 = getelementptr inbounds nuw %struct.opj_codec_private, ptr %21, i32 0, i32 0
  %23 = getelementptr inbounds nuw %struct.opj_compression, ptr %22, i32 0, i32 0
  store ptr @opj_j2k_start_compress, ptr %23, align 8, !tbaa !25
  %24 = load ptr, ptr %4, align 8, !tbaa !9
  %25 = getelementptr inbounds nuw %struct.opj_codec_private, ptr %24, i32 0, i32 0
  %26 = getelementptr inbounds nuw %struct.opj_compression, ptr %25, i32 0, i32 2
  store ptr @opj_j2k_write_tile, ptr %26, align 8, !tbaa !25
  %27 = load ptr, ptr %4, align 8, !tbaa !9
  %28 = getelementptr inbounds nuw %struct.opj_codec_private, ptr %27, i32 0, i32 0
  %29 = getelementptr inbounds nuw %struct.opj_compression, ptr %28, i32 0, i32 4
  store ptr @opj_j2k_destroy, ptr %29, align 8, !tbaa !25
  %30 = load ptr, ptr %4, align 8, !tbaa !9
  %31 = getelementptr inbounds nuw %struct.opj_codec_private, ptr %30, i32 0, i32 0
  %32 = getelementptr inbounds nuw %struct.opj_compression, ptr %31, i32 0, i32 5
  store ptr @opj_j2k_setup_encoder, ptr %32, align 8, !tbaa !25
  %33 = load ptr, ptr %4, align 8, !tbaa !9
  %34 = getelementptr inbounds nuw %struct.opj_codec_private, ptr %33, i32 0, i32 0
  %35 = getelementptr inbounds nuw %struct.opj_compression, ptr %34, i32 0, i32 6
  store ptr @opj_j2k_encoder_set_extra_options, ptr %35, align 8, !tbaa !25
  %36 = load ptr, ptr %4, align 8, !tbaa !9
  %37 = getelementptr inbounds nuw %struct.opj_codec_private, ptr %36, i32 0, i32 7
  store ptr @opj_j2k_set_threads, ptr %37, align 8, !tbaa !26
  %38 = call ptr @opj_j2k_create_compress()
  %39 = load ptr, ptr %4, align 8, !tbaa !9
  %40 = getelementptr inbounds nuw %struct.opj_codec_private, ptr %39, i32 0, i32 1
  store ptr %38, ptr %40, align 8, !tbaa !27
  %41 = load ptr, ptr %4, align 8, !tbaa !9
  %42 = getelementptr inbounds nuw %struct.opj_codec_private, ptr %41, i32 0, i32 1
  %43 = load ptr, ptr %42, align 8, !tbaa !27
  %44 = icmp ne ptr %43, null
  br i1 %44, label %47, label %45

45:                                               ; preds = %14
  %46 = load ptr, ptr %4, align 8, !tbaa !9
  call void @opj_free(ptr noundef %46)
  store ptr null, ptr %2, align 8
  store i32 1, ptr %5, align 4
  br label %89

47:                                               ; preds = %14
  br label %85

48:                                               ; preds = %10
  %49 = load ptr, ptr %4, align 8, !tbaa !9
  %50 = getelementptr inbounds nuw %struct.opj_codec_private, ptr %49, i32 0, i32 0
  %51 = getelementptr inbounds nuw %struct.opj_compression, ptr %50, i32 0, i32 1
  store ptr @opj_jp2_encode, ptr %51, align 8, !tbaa !25
  %52 = load ptr, ptr %4, align 8, !tbaa !9
  %53 = getelementptr inbounds nuw %struct.opj_codec_private, ptr %52, i32 0, i32 0
  %54 = getelementptr inbounds nuw %struct.opj_compression, ptr %53, i32 0, i32 3
  store ptr @opj_jp2_end_compress, ptr %54, align 8, !tbaa !25
  %55 = load ptr, ptr %4, align 8, !tbaa !9
  %56 = getelementptr inbounds nuw %struct.opj_codec_private, ptr %55, i32 0, i32 0
  %57 = getelementptr inbounds nuw %struct.opj_compression, ptr %56, i32 0, i32 0
  store ptr @opj_jp2_start_compress, ptr %57, align 8, !tbaa !25
  %58 = load ptr, ptr %4, align 8, !tbaa !9
  %59 = getelementptr inbounds nuw %struct.opj_codec_private, ptr %58, i32 0, i32 0
  %60 = getelementptr inbounds nuw %struct.opj_compression, ptr %59, i32 0, i32 2
  store ptr @opj_jp2_write_tile, ptr %60, align 8, !tbaa !25
  %61 = load ptr, ptr %4, align 8, !tbaa !9
  %62 = getelementptr inbounds nuw %struct.opj_codec_private, ptr %61, i32 0, i32 0
  %63 = getelementptr inbounds nuw %struct.opj_compression, ptr %62, i32 0, i32 4
  store ptr @opj_jp2_destroy, ptr %63, align 8, !tbaa !25
  %64 = load ptr, ptr %4, align 8, !tbaa !9
  %65 = getelementptr inbounds nuw %struct.opj_codec_private, ptr %64, i32 0, i32 0
  %66 = getelementptr inbounds nuw %struct.opj_compression, ptr %65, i32 0, i32 5
  store ptr @opj_jp2_setup_encoder, ptr %66, align 8, !tbaa !25
  %67 = load ptr, ptr %4, align 8, !tbaa !9
  %68 = getelementptr inbounds nuw %struct.opj_codec_private, ptr %67, i32 0, i32 0
  %69 = getelementptr inbounds nuw %struct.opj_compression, ptr %68, i32 0, i32 6
  store ptr @opj_jp2_encoder_set_extra_options, ptr %69, align 8, !tbaa !25
  %70 = load ptr, ptr %4, align 8, !tbaa !9
  %71 = getelementptr inbounds nuw %struct.opj_codec_private, ptr %70, i32 0, i32 7
  store ptr @opj_jp2_set_threads, ptr %71, align 8, !tbaa !26
  %72 = call ptr @opj_jp2_create(i32 noundef 0)
  %73 = load ptr, ptr %4, align 8, !tbaa !9
  %74 = getelementptr inbounds nuw %struct.opj_codec_private, ptr %73, i32 0, i32 1
  store ptr %72, ptr %74, align 8, !tbaa !27
  %75 = load ptr, ptr %4, align 8, !tbaa !9
  %76 = getelementptr inbounds nuw %struct.opj_codec_private, ptr %75, i32 0, i32 1
  %77 = load ptr, ptr %76, align 8, !tbaa !27
  %78 = icmp ne ptr %77, null
  br i1 %78, label %81, label %79

79:                                               ; preds = %48
  %80 = load ptr, ptr %4, align 8, !tbaa !9
  call void @opj_free(ptr noundef %80)
  store ptr null, ptr %2, align 8
  store i32 1, ptr %5, align 4
  br label %89

81:                                               ; preds = %48
  br label %85

82:                                               ; preds = %10, %10
  br label %83

83:                                               ; preds = %10, %82
  %84 = load ptr, ptr %4, align 8, !tbaa !9
  call void @opj_free(ptr noundef %84)
  store ptr null, ptr %2, align 8
  store i32 1, ptr %5, align 4
  br label %89

85:                                               ; preds = %81, %47
  %86 = load ptr, ptr %4, align 8, !tbaa !9
  %87 = getelementptr inbounds nuw %struct.opj_codec_private, ptr %86, i32 0, i32 2
  call void @opj_set_default_event_handler(ptr noundef %87)
  %88 = load ptr, ptr %4, align 8, !tbaa !9
  store ptr %88, ptr %2, align 8
  store i32 1, ptr %5, align 4
  br label %89

89:                                               ; preds = %85, %83, %79, %45, %9
  call void @llvm.lifetime.end.p0(i64 8, ptr %4) #5
  %90 = load ptr, ptr %2, align 8
  ret ptr %90
}