; Function Attrs: nounwind uwtable
define hidden ptr @opj_create_compress(i32 noundef %0) local_unnamed_addr #2 {
  %2 = tail call ptr @opj_calloc(i64 noundef 1, i64 noundef 192) #8
  %.not = icmp eq ptr %2, null
  br i1 %.not, label %30, label %3

3:                                                ; preds = %1
  %4 = getelementptr inbounds nuw i8, ptr %2, i64 152
  store i32 0, ptr %4, align 8, !tbaa !15
  switch i32 %0, label %27 [
    i32 0, label %5
    i32 2, label %16
  ]

5:                                                ; preds = %3
  %6 = getelementptr inbounds nuw i8, ptr %2, i64 8
  store ptr @opj_j2k_encode, ptr %6, align 8, !tbaa !19
  %7 = getelementptr inbounds nuw i8, ptr %2, i64 24
  store ptr @opj_j2k_end_compress, ptr %7, align 8, !tbaa !19
  store ptr @opj_j2k_start_compress, ptr %2, align 8, !tbaa !19
  %8 = getelementptr inbounds nuw i8, ptr %2, i64 16
  store ptr @opj_j2k_write_tile, ptr %8, align 8, !tbaa !19
  %9 = getelementptr inbounds nuw i8, ptr %2, i64 32
  store ptr @opj_j2k_destroy, ptr %9, align 8, !tbaa !19
  %10 = getelementptr inbounds nuw i8, ptr %2, i64 40
  store ptr @opj_j2k_setup_encoder, ptr %10, align 8, !tbaa !19
  %11 = getelementptr inbounds nuw i8, ptr %2, i64 48
  store ptr @opj_j2k_encoder_set_extra_options, ptr %11, align 8, !tbaa !19
  %12 = getelementptr inbounds nuw i8, ptr %2, i64 184
  store ptr @opj_j2k_set_threads, ptr %12, align 8, !tbaa !20
  %13 = tail call ptr @opj_j2k_create_compress() #8
  %14 = getelementptr inbounds nuw i8, ptr %2, i64 96
  store ptr %13, ptr %14, align 8, !tbaa !21
  %.not30 = icmp eq ptr %13, null
  br i1 %.not30, label %15, label %28

15:                                               ; preds = %5
  tail call void @opj_free(ptr noundef nonnull %2) #8
  br label %30

16:                                               ; preds = %3
  %17 = getelementptr inbounds nuw i8, ptr %2, i64 8
  store ptr @opj_jp2_encode, ptr %17, align 8, !tbaa !19
  %18 = getelementptr inbounds nuw i8, ptr %2, i64 24
  store ptr @opj_jp2_end_compress, ptr %18, align 8, !tbaa !19
  store ptr @opj_jp2_start_compress, ptr %2, align 8, !tbaa !19
  %19 = getelementptr inbounds nuw i8, ptr %2, i64 16
  store ptr @opj_jp2_write_tile, ptr %19, align 8, !tbaa !19
  %20 = getelementptr inbounds nuw i8, ptr %2, i64 32
  store ptr @opj_jp2_destroy, ptr %20, align 8, !tbaa !19
  %21 = getelementptr inbounds nuw i8, ptr %2, i64 40
  store ptr @opj_jp2_setup_encoder, ptr %21, align 8, !tbaa !19
  %22 = getelementptr inbounds nuw i8, ptr %2, i64 48
  store ptr @opj_jp2_encoder_set_extra_options, ptr %22, align 8, !tbaa !19
  %23 = getelementptr inbounds nuw i8, ptr %2, i64 184
  store ptr @opj_jp2_set_threads, ptr %23, align 8, !tbaa !20
  %24 = tail call ptr @opj_jp2_create(i32 noundef 0) #8
  %25 = getelementptr inbounds nuw i8, ptr %2, i64 96
  store ptr %24, ptr %25, align 8, !tbaa !21
  %.not29 = icmp eq ptr %24, null
  br i1 %.not29, label %26, label %28

26:                                               ; preds = %16
  tail call void @opj_free(ptr noundef nonnull %2) #8
  br label %30

27:                                               ; preds = %3
  tail call void @opj_free(ptr noundef nonnull %2) #8
  br label %30

28:                                               ; preds = %16, %5
  %29 = getelementptr inbounds nuw i8, ptr %2, i64 104
  tail call void @opj_set_default_event_handler(ptr noundef nonnull %29) #8
  br label %30

30:                                               ; preds = %1, %28, %27, %26, %15
  %.0 = phi ptr [ null, %27 ], [ %2, %28 ], [ null, %26 ], [ null, %15 ], [ null, %1 ]
  ret ptr %.0
}